	.file	"main.c"
	.text
Ltext0:
	.cfi_sections	.debug_frame
	.def	___main;	.scl	2;	.type	32;	.endef
	.section .rdata,"dr"
	.align 4
LC0:
	.ascii "Entre com o tamanho do vetor: \0"
LC1:
	.ascii "%d\0"
LC2:
	.ascii "main: \0"
LC3:
	.ascii "Entre com o valor de v[%d]: \12\0"
	.align 4
LC4:
	.ascii "o somatorio dos elementodo do vetor eh : %d\12\0"
LC5:
	.ascii "vec[%d]: %d \12\0"
	.text
	.globl	_main
	.def	_main;	.scl	2;	.type	32;	.endef
_main:
LFB6:
	.file 1 "C:/Users/dudu/Desktop/Exercicio_1/main.c"
	.loc 1 8 0
	.cfi_startproc
	pushl	%ebp
	.cfi_def_cfa_offset 8
	.cfi_offset 5, -8
	movl	%esp, %ebp
	.cfi_def_cfa_register 5
	andl	$-16, %esp
	subl	$32, %esp
	.loc 1 8 0
	call	___main
	.loc 1 11 0
	movl	$LC0, (%esp)
	call	_printf
	.loc 1 12 0
	leal	20(%esp), %eax
	movl	%eax, 4(%esp)
	movl	$LC1, (%esp)
	call	_scanf
	.loc 1 14 0
	movl	20(%esp), %eax
	sall	$2, %eax
	movl	%eax, (%esp)
	call	_malloc
	movl	%eax, 24(%esp)
	.loc 1 16 0
	cmpl	$0, 24(%esp)
	jne	L2
	.loc 1 18 0
	movl	$LC2, (%esp)
	call	_perror
	.loc 1 19 0
	movl	$1, (%esp)
	call	_exit
L2:
	.loc 1 22 0
	movl	$0, 28(%esp)
	jmp	L3
L4:
	.loc 1 24 0 discriminator 3
	movl	28(%esp), %eax
	movl	%eax, 4(%esp)
	movl	$LC3, (%esp)
	call	_printf
	.loc 1 25 0 discriminator 3
	movl	28(%esp), %eax
	leal	0(,%eax,4), %edx
	movl	24(%esp), %eax
	addl	%edx, %eax
	movl	%eax, 4(%esp)
	movl	$LC1, (%esp)
	call	_scanf
	.loc 1 22 0 discriminator 3
	addl	$1, 28(%esp)
L3:
	.loc 1 22 0 is_stmt 0 discriminator 1
	movl	20(%esp), %eax
	cmpl	%eax, 28(%esp)
	jl	L4
	.loc 1 27 0 is_stmt 1
	movl	20(%esp), %eax
	movl	%eax, 4(%esp)
	movl	24(%esp), %eax
	movl	%eax, (%esp)
	call	_sumVector
	movl	%eax, 4(%esp)
	movl	$LC4, (%esp)
	call	_printf
	.loc 1 29 0
	movl	20(%esp), %eax
	movl	%eax, 4(%esp)
	movl	24(%esp), %eax
	movl	%eax, (%esp)
	call	_revertVector
	.loc 1 31 0
	movl	$0, 28(%esp)
	jmp	L5
L6:
	.loc 1 33 0 discriminator 3
	movl	28(%esp), %eax
	leal	0(,%eax,4), %edx
	movl	24(%esp), %eax
	addl	%edx, %eax
	movl	(%eax), %eax
	movl	%eax, 8(%esp)
	movl	28(%esp), %eax
	movl	%eax, 4(%esp)
	movl	$LC5, (%esp)
	call	_printf
	.loc 1 31 0 discriminator 3
	addl	$1, 28(%esp)
L5:
	.loc 1 31 0 is_stmt 0 discriminator 1
	movl	20(%esp), %eax
	cmpl	%eax, 28(%esp)
	jl	L6
	.loc 1 35 0 is_stmt 1
	movl	24(%esp), %eax
	movl	%eax, (%esp)
	call	_free
	.loc 1 36 0
	movl	$0, %eax
	.loc 1 37 0
	leave
	.cfi_restore 5
	.cfi_def_cfa 4, 4
	ret
	.cfi_endproc
LFE6:
	.globl	_sumVector
	.def	_sumVector;	.scl	2;	.type	32;	.endef
_sumVector:
LFB7:
	.loc 1 41 0
	.cfi_startproc
	pushl	%ebp
	.cfi_def_cfa_offset 8
	.cfi_offset 5, -8
	movl	%esp, %ebp
	.cfi_def_cfa_register 5
	subl	$16, %esp
	.loc 1 42 0
	movl	$0, -8(%ebp)
	.loc 1 43 0
	movl	$0, -4(%ebp)
	jmp	L9
L10:
	.loc 1 44 0 discriminator 3
	movl	-4(%ebp), %eax
	leal	0(,%eax,4), %edx
	movl	8(%ebp), %eax
	addl	%edx, %eax
	movl	(%eax), %eax
	addl	%eax, -8(%ebp)
	.loc 1 43 0 discriminator 3
	addl	$1, -4(%ebp)
L9:
	.loc 1 43 0 is_stmt 0 discriminator 1
	movl	-4(%ebp), %eax
	cmpl	12(%ebp), %eax
	jl	L10
	.loc 1 45 0 is_stmt 1
	movl	-8(%ebp), %eax
	.loc 1 46 0
	leave
	.cfi_restore 5
	.cfi_def_cfa 4, 4
	ret
	.cfi_endproc
LFE7:
	.globl	_revertVector
	.def	_revertVector;	.scl	2;	.type	32;	.endef
_revertVector:
LFB8:
	.loc 1 51 0
	.cfi_startproc
	pushl	%ebp
	.cfi_def_cfa_offset 8
	.cfi_offset 5, -8
	movl	%esp, %ebp
	.cfi_def_cfa_register 5
	subl	$16, %esp
	.loc 1 54 0
	movl	$0, -4(%ebp)
	movl	12(%ebp), %eax
	subl	$1, %eax
	movl	%eax, -8(%ebp)
	jmp	L13
L14:
	.loc 1 56 0 discriminator 3
	movl	-8(%ebp), %eax
	leal	0(,%eax,4), %edx
	movl	8(%ebp), %eax
	addl	%edx, %eax
	movl	(%eax), %eax
	movl	%eax, -12(%ebp)
	.loc 1 57 0 discriminator 3
	movl	-8(%ebp), %eax
	leal	0(,%eax,4), %edx
	movl	8(%ebp), %eax
	addl	%eax, %edx
	movl	-4(%ebp), %eax
	leal	0(,%eax,4), %ecx
	movl	8(%ebp), %eax
	addl	%ecx, %eax
	movl	(%eax), %eax
	movl	%eax, (%edx)
	.loc 1 58 0 discriminator 3
	movl	-4(%ebp), %eax
	leal	0(,%eax,4), %edx
	movl	8(%ebp), %eax
	addl	%eax, %edx
	movl	-12(%ebp), %eax
	movl	%eax, (%edx)
	.loc 1 54 0 discriminator 3
	addl	$1, -4(%ebp)
	subl	$1, -8(%ebp)
L13:
	.loc 1 54 0 is_stmt 0 discriminator 1
	movl	-4(%ebp), %eax
	cmpl	-8(%ebp), %eax
	jl	L14
	.loc 1 60 0 is_stmt 1
	movl	8(%ebp), %eax
	.loc 1 61 0
	leave
	.cfi_restore 5
	.cfi_def_cfa 4, 4
	ret
	.cfi_endproc
LFE8:
Letext0:
	.file 2 "C:/Program Files (x86)/CodeBlocks/MinGW/include/stdio.h"