	.file	"main.c"
	.text
Ltext0:
	.cfi_sections	.debug_frame
	.def	___main;	.scl	2;	.type	32;	.endef
	.section .rdata,"dr"
LC0:
	.ascii "r\0"
LC1:
	.ascii "arquivo_entrada.mif\0"
LC2:
	.ascii "Error ao abrir arquivo\0"
LC3:
	.ascii "%d      :       %x;\12\0"
LC4:
	.ascii "Armazenado:  [%d]  :    %x \12\0"
LC5:
	.ascii "wb\0"
LC6:
	.ascii "saida.bin\0"
	.text
	.globl	_main
	.def	_main;	.scl	2;	.type	32;	.endef
_main:
LFB6:
	.file 1 "C:/Users/dudu/Documents/Engenharia/SEMESTRE 5/Programa\347\343o 2/AULA 3 - E-S DADOS/EXERCICIO_E_S_DADOS/main.c"
	.loc 1 18 0
	.cfi_startproc
	pushl	%ebp
	.cfi_def_cfa_offset 8
	.cfi_offset 5, -8
	movl	%esp, %ebp
	.cfi_def_cfa_register 5
	andl	$-16, %esp
	subl	$1120, %esp
	.loc 1 18 0
	call	___main
	.loc 1 20 0
	movl	$0, 1112(%esp)
	.loc 1 21 0
	movl	$0, 1108(%esp)
	.loc 1 24 0
	movl	$0, 1048(%esp)
	.loc 1 25 0
	movl	$0, 1044(%esp)
	.loc 1 26 0
	movl	$0, 1116(%esp)
	.loc 1 27 0
	movl	$0, 1104(%esp)
	.loc 1 32 0
	movl	$LC0, 4(%esp)
	movl	$LC1, (%esp)
	call	_fopen
	movl	%eax, 1112(%esp)
	.loc 1 34 0
	cmpl	$0, 1112(%esp)
	jne	L3
	.loc 1 36 0
	movl	$LC2, (%esp)
	call	_perror
	.loc 1 37 0
	movl	$1, (%esp)
	call	_exit
L5:
	.loc 1 44 0
	movl	1112(%esp), %eax
	movl	%eax, 8(%esp)
	movl	$50, 4(%esp)
	leal	1054(%esp), %eax
	movl	%eax, (%esp)
	call	_fgets
	.loc 1 48 0
	leal	1044(%esp), %eax
	movl	%eax, 12(%esp)
	leal	1048(%esp), %eax
	movl	%eax, 8(%esp)
	movl	$LC3, 4(%esp)
	leal	1054(%esp), %eax
	movl	%eax, (%esp)
	call	_sscanf
	movl	%eax, 1104(%esp)
	.loc 1 55 0
	cmpl	$2, 1104(%esp)
	jne	L4
	.loc 1 55 0 is_stmt 0 discriminator 1
	movl	1048(%esp), %eax
	cmpl	$255, %eax
	jg	L4
	.loc 1 57 0 is_stmt 1
	movl	1048(%esp), %eax
	movl	1044(%esp), %edx
	movl	%edx, 20(%esp,%eax,4)
	.loc 1 60 0
	movl	1044(%esp), %edx
	movl	1048(%esp), %eax
	movl	%edx, 8(%esp)
	movl	%eax, 4(%esp)
	movl	$LC4, (%esp)
	call	_printf
L4:
	.loc 1 63 0
	addl	$1, 1116(%esp)
L3:
	.loc 1 41 0
	movl	1112(%esp), %eax
	movl	12(%eax), %eax
	andl	$16, %eax
	.loc 1 41 0
	testl	%eax, %eax
	je	L5
	.loc 1 66 0
	movl	1112(%esp), %eax
	movl	%eax, (%esp)
	call	_fclose
	.loc 1 68 0
	movl	$LC5, 4(%esp)
	movl	$LC6, (%esp)
	call	_fopen
	movl	%eax, 1108(%esp)
	.loc 1 75 0
	movl	1108(%esp), %eax
	movl	%eax, 12(%esp)
	movl	$256, 8(%esp)
	movl	$4, 4(%esp)
	leal	20(%esp), %eax
	movl	%eax, (%esp)
	call	_fwrite
	.loc 1 77 0
	movl	1108(%esp), %eax
	movl	%eax, (%esp)
	call	_fclose
	movl	$0, %eax
	.loc 1 79 0
	leave
	.cfi_restore 5
	.cfi_def_cfa 4, 4
	ret
	.cfi_endproc
LFE6:
Letext0:
	.file 2 "C:/Program Files (x86)/CodeBlocks/MinGW/include/stdio.h"
	.file 3 "C:/Program Files (x86)/CodeBlocks/MinGW/include/stdint.h"